target datalayout = "e-m:e-p270:32:32-p271:32:32-p272:64:64-i64:64-i128:128-f80:128-n8:16:32:64-S128"
target triple = "x86_64-pc-linux-gnu"

%struct.gmx_rmpbc = type { ptr, ptr, i32, i32, i32, ptr }
%struct.t_idef = type { i32, i32, ptr, ptr, float, ptr, ptr, [94 x %struct.t_ilist], i32 }
%struct.t_ilist = type { i32, ptr, i32 }
%struct.rmpbc_graph_t = type { i32, ptr }
%"class.std::filesystem::__cxx11::path" = type { %"class.std::__cxx11::basic_string", %"struct.std::filesystem::__cxx11::path::_List" }
%"class.std::__cxx11::basic_string" = type { %"struct.std::__cxx11::basic_string<char>::_Alloc_hider", i64, %union.anon }
%"struct.std::__cxx11::basic_string<char>::_Alloc_hider" = type { ptr }
%union.anon = type { i64, [8 x i8] }
%"struct.std::filesystem::__cxx11::path::_List" = type { %"class.std::unique_ptr" }
%"class.std::unique_ptr" = type { %"struct.std::__uniq_ptr_data" }
%"struct.std::__uniq_ptr_data" = type { %"class.std::__uniq_ptr_impl" }
%"class.std::__uniq_ptr_impl" = type { %"class.std::tuple" }
%"class.std::tuple" = type { %"struct.std::_Tuple_impl" }
%"struct.std::_Tuple_impl" = type { %"struct.std::_Head_base.25" }
%"struct.std::_Head_base.25" = type { ptr }

@.str.1 = private unnamed_addr constant [123 x i8] c"generated/home/dtcxzyw/WorkSpace/Projects/compilers/llvm-opt-benchmark/bench/gromacs/gromacs/src/gromacs/pbcutil/rmpbc.cpp\00", align 1
@.str.3 = private unnamed_addr constant [12 x i8] c"gpbc->graph\00", align 1
@.str.4 = private unnamed_addr constant [72 x i8] c"Structure or trajectory file has more atoms (%d) than the topology (%d)\00", align 1

; Function Attrs: mustprogress uwtable
define internal void @_ZL15gmx_srenew_implI13rmpbc_graph_tEvPKcS2_iRPT_m(ptr noundef %0, ptr noundef %1, i32 noundef %2, ptr noundef nonnull align 8 dereferenceable(8) %3, i64 noundef %4) #0 {
  %6 = alloca ptr, align 8
  %7 = alloca ptr, align 8
  %8 = alloca i32, align 4
  %9 = alloca ptr, align 8
  %10 = alloca i64, align 8
  store ptr %0, ptr %6, align 8
  store ptr %1, ptr %7, align 8
  store i32 %2, ptr %8, align 4
  store ptr %3, ptr %9, align 8
  store i64 %4, ptr %10, align 8
  %11 = load ptr, ptr %6, align 8
  %12 = load ptr, ptr %7, align 8
  %13 = load i32, ptr %8, align 4
  %14 = load ptr, ptr %9, align 8
  %15 = load ptr, ptr %14, align 8
  %16 = load i64, ptr %10, align 8
  %17 = call noundef ptr @_Z12save_reallocPKcS0_iPvmm(ptr noundef %11, ptr noundef %12, i32 noundef %13, ptr noundef %15, i64 noundef %16, i64 noundef 16)
  %18 = load ptr, ptr %9, align 8
  store ptr %17, ptr %18, align 8
  ret void
}

; Function Attrs: mustprogress uwtable
define internal noundef ptr @_ZL19gmx_rmpbc_get_graphP9gmx_rmpbc7PbcTypei(ptr noundef %0, i32 noundef %1, i32 noundef %2) #0 personality ptr @__gxx_personality_v0 {
  %4 = alloca ptr, align 8
  %5 = alloca ptr, align 8
  %6 = alloca i32, align 4
  %7 = alloca i32, align 4
  %8 = alloca i32, align 4
  %9 = alloca ptr, align 8
  %10 = alloca %"class.std::filesystem::__cxx11::path", align 8
  %11 = alloca ptr, align 8
  %12 = alloca i32, align 4
  store ptr %0, ptr %5, align 8
  store i32 %1, ptr %6, align 4
  store i32 %2, ptr %7, align 4
  %13 = load i32, ptr %6, align 4
  %14 = icmp eq i32 %13, 1
  br i1 %14, label %35, label %15

15:                                               ; preds = %3
  %16 = load ptr, ptr %5, align 8
  %17 = icmp eq ptr null, %16
  br i1 %17, label %35, label %18

18:                                               ; preds = %15
  %19 = load ptr, ptr %5, align 8
  %20 = getelementptr inbounds %struct.gmx_rmpbc, ptr %19, i32 0, i32 0
  %21 = load ptr, ptr %20, align 8
  %22 = icmp eq ptr null, %21
  br i1 %22, label %23, label %36

23:                                               ; preds = %18
  %24 = load ptr, ptr %5, align 8
  %25 = getelementptr inbounds %struct.gmx_rmpbc, ptr %24, i32 0, i32 1
  %26 = load ptr, ptr %25, align 8
  %27 = icmp eq ptr null, %26
  br i1 %27, label %35, label %28

28:                                               ; preds = %23
  %29 = load ptr, ptr %5, align 8
  %30 = getelementptr inbounds %struct.gmx_rmpbc, ptr %29, i32 0, i32 1
  %31 = load ptr, ptr %30, align 8
  %32 = getelementptr inbounds %struct.t_idef, ptr %31, i32 0, i32 0
  %33 = load i32, ptr %32, align 8
  %34 = icmp sle i32 %33, 0
  br i1 %34, label %35, label %36

35:                                               ; preds = %28, %23, %15, %3
  store ptr null, ptr %4, align 8
  br label %132

36:                                               ; preds = %28, %18
  store ptr null, ptr %9, align 8
  store i32 0, ptr %8, align 4
  br label %37

37:                                               ; preds = %62, %36
  %38 = load i32, ptr %8, align 4
  %39 = load ptr, ptr %5, align 8
  %40 = getelementptr inbounds %struct.gmx_rmpbc, ptr %39, i32 0, i32 4
  %41 = load i32, ptr %40, align 8
  %42 = icmp slt i32 %38, %41
  br i1 %42, label %43, label %65

43:                                               ; preds = %37
  %44 = load i32, ptr %7, align 4
  %45 = load ptr, ptr %5, align 8
  %46 = getelementptr inbounds %struct.gmx_rmpbc, ptr %45, i32 0, i32 5
  %47 = load ptr, ptr %46, align 8
  %48 = load i32, ptr %8, align 4
  %49 = sext i32 %48 to i64
  %50 = getelementptr inbounds %struct.rmpbc_graph_t, ptr %47, i64 %49
  %51 = getelementptr inbounds %struct.rmpbc_graph_t, ptr %50, i32 0, i32 0
  %52 = load i32, ptr %51, align 8
  %53 = icmp eq i32 %44, %52
  br i1 %53, label %54, label %61

54:                                               ; preds = %43
  %55 = load ptr, ptr %5, align 8
  %56 = getelementptr inbounds %struct.gmx_rmpbc, ptr %55, i32 0, i32 5
  %57 = load ptr, ptr %56, align 8
  %58 = load i32, ptr %8, align 4
  %59 = sext i32 %58 to i64
  %60 = getelementptr inbounds %struct.rmpbc_graph_t, ptr %57, i64 %59
  store ptr %60, ptr %9, align 8
  br label %61

61:                                               ; preds = %54, %43
  br label %62

62:                                               ; preds = %61
  %63 = load i32, ptr %8, align 4
  %64 = add nsw i32 %63, 1
  store i32 %64, ptr %8, align 4
  br label %37, !llvm.loop !7

65:                                               ; preds = %37
  %66 = load ptr, ptr %9, align 8
  %67 = icmp eq ptr %66, null
  br i1 %67, label %68, label %128

68:                                               ; preds = %65
  %69 = load i32, ptr %7, align 4
  %70 = load ptr, ptr %5, align 8
  %71 = getelementptr inbounds %struct.gmx_rmpbc, ptr %70, i32 0, i32 2
  %72 = load i32, ptr %71, align 8
  %73 = icmp sgt i32 %69, %72
  br i1 %73, label %74, label %84

74:                                               ; preds = %68
  call void @_ZNSt10filesystem7__cxx114pathC2IA123_cS1_EERKT_NS1_6formatE(ptr noundef nonnull align 8 dereferenceable(40) %10, ptr noundef nonnull align 1 dereferenceable(123) @.str.1, i8 noundef zeroext 2)
  %75 = load i32, ptr %7, align 4
  %76 = load ptr, ptr %5, align 8
  %77 = getelementptr inbounds %struct.gmx_rmpbc, ptr %76, i32 0, i32 2
  %78 = load i32, ptr %77, align 8
  invoke void (i32, ptr, i32, ptr, ...) @_Z9gmx_fataliRKNSt10filesystem7__cxx114pathEiPKcz(i32 noundef 0, ptr noundef nonnull align 8 dereferenceable(40) %10, i32 noundef 97, ptr noundef @.str.4, i32 noundef %75, i32 noundef %78) #12
          to label %79 unwind label %80

79:                                               ; preds = %74
  unreachable

80:                                               ; preds = %74
  %81 = landingpad { ptr, i32 }
          cleanup
  %82 = extractvalue { ptr, i32 } %81, 0
  store ptr %82, ptr %11, align 8
  %83 = extractvalue { ptr, i32 } %81, 1
  store i32 %83, ptr %12, align 4
  call void @_ZNSt10filesystem7__cxx114pathD2Ev(ptr noundef nonnull align 8 dereferenceable(40) %10) #9
  br label %134

84:                                               ; preds = %68
  %85 = load ptr, ptr %5, align 8
  %86 = getelementptr inbounds %struct.gmx_rmpbc, ptr %85, i32 0, i32 4
  %87 = load i32, ptr %86, align 8
  %88 = add nsw i32 %87, 1
  store i32 %88, ptr %86, align 8
  %89 = load ptr, ptr %5, align 8
  %90 = getelementptr inbounds %struct.gmx_rmpbc, ptr %89, i32 0, i32 5
  %91 = load ptr, ptr %5, align 8
  %92 = getelementptr inbounds %struct.gmx_rmpbc, ptr %91, i32 0, i32 4
  %93 = load i32, ptr %92, align 8
  %94 = sext i32 %93 to i64
  call void @_ZL15gmx_srenew_implI13rmpbc_graph_tEvPKcS2_iRPT_m(ptr noundef @.str.3, ptr noundef @.str.1, i32 noundef 103, ptr noundef nonnull align 8 dereferenceable(8) %90, i64 noundef %94)
  %95 = load ptr, ptr %5, align 8
  %96 = getelementptr inbounds %struct.gmx_rmpbc, ptr %95, i32 0, i32 5
  %97 = load ptr, ptr %96, align 8
  %98 = load ptr, ptr %5, align 8
  %99 = getelementptr inbounds %struct.gmx_rmpbc, ptr %98, i32 0, i32 4
  %100 = load i32, ptr %99, align 8
  %101 = sub nsw i32 %100, 1
  %102 = sext i32 %101 to i64
  %103 = getelementptr inbounds %struct.rmpbc_graph_t, ptr %97, i64 %102
  store ptr %103, ptr %9, align 8
  %104 = load i32, ptr %7, align 4
  %105 = load ptr, ptr %9, align 8
  %106 = getelementptr inbounds %struct.rmpbc_graph_t, ptr %105, i32 0, i32 0
  store i32 %104, ptr %106, align 8
  %107 = load ptr, ptr %5, align 8
  %108 = getelementptr inbounds %struct.gmx_rmpbc, ptr %107, i32 0, i32 0
  %109 = load ptr, ptr %108, align 8
  %110 = icmp ne ptr %109, null
  br i1 %110, label %111, label %119

111:                                              ; preds = %84
  %112 = load ptr, ptr %5, align 8
  %113 = getelementptr inbounds %struct.gmx_rmpbc, ptr %112, i32 0, i32 0
  %114 = load ptr, ptr %113, align 8
  %115 = load i32, ptr %7, align 4
  %116 = call noundef ptr @_Z8mk_graphP8_IO_FILERK22InteractionDefinitionsibb(ptr noundef null, ptr noundef nonnull align 8 dereferenceable(2736) %114, i32 noundef %115, i1 noundef zeroext false, i1 noundef zeroext false)
  %117 = load ptr, ptr %9, align 8
  %118 = getelementptr inbounds %struct.rmpbc_graph_t, ptr %117, i32 0, i32 1
  store ptr %116, ptr %118, align 8
  br label %127

119:                                              ; preds = %84
  %120 = load ptr, ptr %5, align 8
  %121 = getelementptr inbounds %struct.gmx_rmpbc, ptr %120, i32 0, i32 1
  %122 = load ptr, ptr %121, align 8
  %123 = load i32, ptr %7, align 4
  %124 = call noundef ptr @_Z8mk_graphP8_IO_FILEPK6t_idefibb(ptr noundef null, ptr noundef %122, i32 noundef %123, i1 noundef zeroext false, i1 noundef zeroext false)
  %125 = load ptr, ptr %9, align 8
  %126 = getelementptr inbounds %struct.rmpbc_graph_t, ptr %125, i32 0, i32 1
  store ptr %124, ptr %126, align 8
  br label %127

127:                                              ; preds = %119, %111
  br label %128

128:                                              ; preds = %127, %65
  %129 = load ptr, ptr %9, align 8
  %130 = getelementptr inbounds %struct.rmpbc_graph_t, ptr %129, i32 0, i32 1
  %131 = load ptr, ptr %130, align 8
  store ptr %131, ptr %4, align 8
  br label %132

132:                                              ; preds = %128, %35
  %133 = load ptr, ptr %4, align 8
  ret ptr %133

134:                                              ; preds = %80
  %135 = load ptr, ptr %11, align 8
  %136 = load i32, ptr %12, align 4
  %137 = insertvalue { ptr, i32 } poison, ptr %135, 0
  %138 = insertvalue { ptr, i32 } %137, i32 %136, 1
  resume { ptr, i32 } %138
}