; Function Attrs: mustprogress uwtable
define internal fastcc noundef ptr @_ZL19gmx_rmpbc_get_graphP9gmx_rmpbc7PbcTypei(ptr noundef %0, i32 noundef %1, i32 noundef %2) unnamed_addr #0 personality ptr @__gxx_personality_v0 {
  %4 = alloca %"class.std::filesystem::__cxx11::path", align 8
  %5 = icmp eq i32 %1, 1
  %6 = icmp eq ptr %0, null
  %or.cond = or i1 %6, %5
  br i1 %or.cond, label %57, label %7

7:                                                ; preds = %3
  %8 = load ptr, ptr %0, align 8
  %9 = icmp eq ptr %8, null
  br i1 %9, label %10, label %17

10:                                               ; preds = %7
  %11 = getelementptr inbounds i8, ptr %0, i64 8
  %12 = load ptr, ptr %11, align 8
  %13 = icmp eq ptr %12, null
  br i1 %13, label %57, label %14

14:                                               ; preds = %10
  %15 = load i32, ptr %12, align 8
  %16 = icmp slt i32 %15, 1
  br i1 %16, label %57, label %17

17:                                               ; preds = %14, %7
  %18 = getelementptr inbounds i8, ptr %0, i64 24
  %19 = load i32, ptr %18, align 8
  %20 = icmp sgt i32 %19, 0
  br i1 %20, label %.lr.ph, label %._crit_edge.thread

.lr.ph:                                           ; preds = %17
  %21 = getelementptr inbounds i8, ptr %0, i64 32
  %22 = load ptr, ptr %21, align 8
  %wide.trip.count = zext nneg i32 %19 to i64
  br label %23

23:                                               ; preds = %.lr.ph, %23
  %indvars.iv = phi i64 [ 0, %.lr.ph ], [ %indvars.iv.next, %23 ]
  %.03745 = phi ptr [ null, %.lr.ph ], [ %spec.select, %23 ]
  %24 = getelementptr inbounds %struct.rmpbc_graph_t, ptr %22, i64 %indvars.iv
  %25 = load i32, ptr %24, align 8
  %26 = icmp eq i32 %25, %2
  %spec.select = select i1 %26, ptr %24, ptr %.03745
  %indvars.iv.next = add nuw nsw i64 %indvars.iv, 1
  %exitcond.not = icmp eq i64 %indvars.iv.next, %wide.trip.count
  br i1 %exitcond.not, label %._crit_edge, label %23, !llvm.loop !7

._crit_edge:                                      ; preds = %23
  %27 = icmp eq ptr %spec.select, null
  br i1 %27, label %._crit_edge.thread, label %54

._crit_edge.thread:                               ; preds = %17, %._crit_edge
  %28 = getelementptr inbounds i8, ptr %0, i64 16
  %29 = load i32, ptr %28, align 8
  %30 = icmp slt i32 %29, %2
  br i1 %30, label %31, label %36

31:                                               ; preds = %._crit_edge.thread
  call void @_ZNSt10filesystem7__cxx114pathC2IA123_cS1_EERKT_NS1_6formatE(ptr noundef nonnull align 8 dereferenceable(40) %4, ptr noundef nonnull align 1 dereferenceable(123) @.str.1, i8 noundef zeroext 2)
  %32 = load i32, ptr %28, align 8
  invoke void (i32, ptr, i32, ptr, ...) @_Z9gmx_fataliRKNSt10filesystem7__cxx114pathEiPKcz(i32 noundef 0, ptr noundef nonnull align 8 dereferenceable(40) %4, i32 noundef 97, ptr noundef nonnull @.str.4, i32 noundef %2, i32 noundef %32) #13
          to label %33 unwind label %34

33:                                               ; preds = %31
  unreachable

34:                                               ; preds = %31
  %35 = landingpad { ptr, i32 }
          cleanup
  call void @_ZNSt10filesystem7__cxx114pathD2Ev(ptr noundef nonnull align 8 dereferenceable(40) %4) #14
  resume { ptr, i32 } %35

36:                                               ; preds = %._crit_edge.thread
  %37 = add nsw i32 %19, 1
  store i32 %37, ptr %18, align 8
  %38 = getelementptr inbounds i8, ptr %0, i64 32
  %39 = sext i32 %37 to i64
  %40 = load ptr, ptr %38, align 8
  %41 = tail call noundef ptr @_Z12save_reallocPKcS0_iPvmm(ptr noundef nonnull @.str.3, ptr noundef nonnull @.str.1, i32 noundef 103, ptr noundef %40, i64 noundef %39, i64 noundef 16)
  store ptr %41, ptr %38, align 8
  %42 = load i32, ptr %18, align 8
  %43 = sext i32 %42 to i64
  %44 = getelementptr %struct.rmpbc_graph_t, ptr %41, i64 %43
  %45 = getelementptr i8, ptr %44, i64 -16
  store i32 %2, ptr %45, align 8
  %46 = load ptr, ptr %0, align 8
  %.not = icmp eq ptr %46, null
  br i1 %.not, label %49, label %47

47:                                               ; preds = %36
  %48 = tail call noundef ptr @_Z8mk_graphP8_IO_FILERK22InteractionDefinitionsibb(ptr noundef null, ptr noundef nonnull align 8 dereferenceable(2736) %46, i32 noundef %2, i1 noundef zeroext false, i1 noundef zeroext false)
  br label %.sink.split

49:                                               ; preds = %36
  %50 = getelementptr inbounds i8, ptr %0, i64 8
  %51 = load ptr, ptr %50, align 8
  %52 = tail call noundef ptr @_Z8mk_graphP8_IO_FILEPK6t_idefibb(ptr noundef null, ptr noundef %51, i32 noundef %2, i1 noundef zeroext false, i1 noundef zeroext false)
  br label %.sink.split

.sink.split:                                      ; preds = %49, %47
  %.sink = phi ptr [ %48, %47 ], [ %52, %49 ]
  %53 = getelementptr i8, ptr %44, i64 -8
  store ptr %.sink, ptr %53, align 8
  br label %54

54:                                               ; preds = %.sink.split, %._crit_edge
  %.2 = phi ptr [ %spec.select, %._crit_edge ], [ %45, %.sink.split ]
  %55 = getelementptr inbounds i8, ptr %.2, i64 8
  %56 = load ptr, ptr %55, align 8
  br label %57

57:                                               ; preds = %3, %10, %14, %54
  %.0 = phi ptr [ %56, %54 ], [ null, %14 ], [ null, %10 ], [ null, %3 ]
  ret ptr %.0
}